target datalayout = "e-m:e-p270:32:32-p271:32:32-p272:64:64-i64:64-i128:128-f80:128-n8:16:32:64-S128"
target triple = "x86_64-pc-linux-gnu"

%struct.CvMat = type { i32, i32, ptr, i32, %union.anon, %union.anon.0, %union.anon.1 }
%union.anon = type { ptr }
%union.anon.0 = type { i32 }
%union.anon.1 = type { i32 }

; Function Attrs: inlinehint mustprogress nounwind uwtable
define internal void @_ZL6cvmSetP5CvMatiid(ptr noundef %0, i32 noundef %1, i32 noundef %2, double noundef %3) #6 {
  %5 = alloca ptr, align 8
  %6 = alloca i32, align 4
  %7 = alloca i32, align 4
  %8 = alloca double, align 8
  %9 = alloca i32, align 4
  store ptr %0, ptr %5, align 8, !tbaa !68
  store i32 %1, ptr %6, align 4, !tbaa !10
  store i32 %2, ptr %7, align 4, !tbaa !10
  store double %3, ptr %8, align 8, !tbaa !40
  call void @llvm.lifetime.start.p0(i64 4, ptr %9) #3
  %10 = load ptr, ptr %5, align 8, !tbaa !68
  %11 = getelementptr inbounds nuw %struct.CvMat, ptr %10, i32 0, i32 0
  %12 = load i32, ptr %11, align 8, !tbaa !76
  %13 = and i32 %12, 4095
  store i32 %13, ptr %9, align 4, !tbaa !10
  %14 = load i32, ptr %9, align 4, !tbaa !10
  %15 = icmp eq i32 %14, 5
  br i1 %15, label %16, label %33

16:                                               ; preds = %4
  %17 = load double, ptr %8, align 8, !tbaa !40
  %18 = fptrunc double %17 to float
  %19 = load ptr, ptr %5, align 8, !tbaa !68
  %20 = getelementptr inbounds nuw %struct.CvMat, ptr %19, i32 0, i32 4
  %21 = load ptr, ptr %20, align 8, !tbaa !70
  %22 = load ptr, ptr %5, align 8, !tbaa !68
  %23 = getelementptr inbounds nuw %struct.CvMat, ptr %22, i32 0, i32 1
  %24 = load i32, ptr %23, align 4, !tbaa !78
  %25 = sext i32 %24 to i64
  %26 = load i32, ptr %6, align 4, !tbaa !10
  %27 = sext i32 %26 to i64
  %28 = mul i64 %25, %27
  %29 = getelementptr inbounds nuw i8, ptr %21, i64 %28
  %30 = load i32, ptr %7, align 4, !tbaa !10
  %31 = sext i32 %30 to i64
  %32 = getelementptr inbounds float, ptr %29, i64 %31
  store float %18, ptr %32, align 4, !tbaa !34
  br label %49

33:                                               ; preds = %4
  %34 = load double, ptr %8, align 8, !tbaa !40
  %35 = load ptr, ptr %5, align 8, !tbaa !68
  %36 = getelementptr inbounds nuw %struct.CvMat, ptr %35, i32 0, i32 4
  %37 = load ptr, ptr %36, align 8, !tbaa !70
  %38 = load ptr, ptr %5, align 8, !tbaa !68
  %39 = getelementptr inbounds nuw %struct.CvMat, ptr %38, i32 0, i32 1
  %40 = load i32, ptr %39, align 4, !tbaa !78
  %41 = sext i32 %40 to i64
  %42 = load i32, ptr %6, align 4, !tbaa !10
  %43 = sext i32 %42 to i64
  %44 = mul i64 %41, %43
  %45 = getelementptr inbounds nuw i8, ptr %37, i64 %44
  %46 = load i32, ptr %7, align 4, !tbaa !10
  %47 = sext i32 %46 to i64
  %48 = getelementptr inbounds double, ptr %45, i64 %47
  store double %34, ptr %48, align 8, !tbaa !40
  br label %49

49:                                               ; preds = %33, %16
  call void @llvm.lifetime.end.p0(i64 4, ptr %9) #3
  ret void
}

; Function Attrs: inlinehint mustprogress nounwind uwtable
define internal noundef double @_ZL6cvmGetPK5CvMatii(ptr noundef %0, i32 noundef %1, i32 noundef %2) #6 {
  %4 = alloca double, align 8
  %5 = alloca ptr, align 8
  %6 = alloca i32, align 4
  %7 = alloca i32, align 4
  %8 = alloca i32, align 4
  %9 = alloca i32, align 4
  store ptr %0, ptr %5, align 8, !tbaa !68
  store i32 %1, ptr %6, align 4, !tbaa !10
  store i32 %2, ptr %7, align 4, !tbaa !10
  call void @llvm.lifetime.start.p0(i64 4, ptr %8) #3
  %10 = load ptr, ptr %5, align 8, !tbaa !68
  %11 = getelementptr inbounds nuw %struct.CvMat, ptr %10, i32 0, i32 0
  %12 = load i32, ptr %11, align 8, !tbaa !76
  %13 = and i32 %12, 4095
  store i32 %13, ptr %8, align 4, !tbaa !10
  %14 = load i32, ptr %8, align 4, !tbaa !10
  %15 = icmp eq i32 %14, 5
  br i1 %15, label %16, label %33

16:                                               ; preds = %3
  %17 = load ptr, ptr %5, align 8, !tbaa !68
  %18 = getelementptr inbounds nuw %struct.CvMat, ptr %17, i32 0, i32 4
  %19 = load ptr, ptr %18, align 8, !tbaa !70
  %20 = load ptr, ptr %5, align 8, !tbaa !68
  %21 = getelementptr inbounds nuw %struct.CvMat, ptr %20, i32 0, i32 1
  %22 = load i32, ptr %21, align 4, !tbaa !78
  %23 = sext i32 %22 to i64
  %24 = load i32, ptr %6, align 4, !tbaa !10
  %25 = sext i32 %24 to i64
  %26 = mul i64 %23, %25
  %27 = getelementptr inbounds nuw i8, ptr %19, i64 %26
  %28 = load i32, ptr %7, align 4, !tbaa !10
  %29 = sext i32 %28 to i64
  %30 = getelementptr inbounds float, ptr %27, i64 %29
  %31 = load float, ptr %30, align 4, !tbaa !34
  %32 = fpext float %31 to double
  store double %32, ptr %4, align 8
  store i32 1, ptr %9, align 4
  br label %49

33:                                               ; preds = %3
  %34 = load ptr, ptr %5, align 8, !tbaa !68
  %35 = getelementptr inbounds nuw %struct.CvMat, ptr %34, i32 0, i32 4
  %36 = load ptr, ptr %35, align 8, !tbaa !70
  %37 = load ptr, ptr %5, align 8, !tbaa !68
  %38 = getelementptr inbounds nuw %struct.CvMat, ptr %37, i32 0, i32 1
  %39 = load i32, ptr %38, align 4, !tbaa !78
  %40 = sext i32 %39 to i64
  %41 = load i32, ptr %6, align 4, !tbaa !10
  %42 = sext i32 %41 to i64
  %43 = mul i64 %40, %42
  %44 = getelementptr inbounds nuw i8, ptr %36, i64 %43
  %45 = load i32, ptr %7, align 4, !tbaa !10
  %46 = sext i32 %45 to i64
  %47 = getelementptr inbounds double, ptr %44, i64 %46
  %48 = load double, ptr %47, align 8, !tbaa !40
  store double %48, ptr %4, align 8
  store i32 1, ptr %9, align 4
  br label %49

49:                                               ; preds = %33, %16
  call void @llvm.lifetime.end.p0(i64 4, ptr %8) #3
  %50 = load double, ptr %4, align 8
  ret double %50
}

; Function Attrs: inlinehint mustprogress nounwind uwtable
define internal void @_ZL5cvMatiiiPv(ptr dead_on_unwind noalias writable sret(%struct.CvMat) align 8 %0, i32 noundef %1, i32 noundef %2, i32 noundef %3, ptr noundef %4) #6 {
  %6 = alloca i32, align 4
  %7 = alloca i32, align 4
  %8 = alloca i32, align 4
  %9 = alloca ptr, align 8
  store i32 %1, ptr %6, align 4, !tbaa !10
  store i32 %2, ptr %7, align 4, !tbaa !10
  store i32 %3, ptr %8, align 4, !tbaa !10
  store ptr %4, ptr %9, align 8, !tbaa !75
  %10 = load i32, ptr %8, align 4, !tbaa !10
  %11 = and i32 %10, 4095
  store i32 %11, ptr %8, align 4, !tbaa !10
  %12 = load i32, ptr %8, align 4, !tbaa !10
  %13 = or i32 1111638016, %12
  %14 = getelementptr inbounds nuw %struct.CvMat, ptr %0, i32 0, i32 0
  store i32 %13, ptr %14, align 8, !tbaa !76
  %15 = load i32, ptr %7, align 4, !tbaa !10
  %16 = getelementptr inbounds nuw %struct.CvMat, ptr %0, i32 0, i32 6
  store i32 %15, ptr %16, align 4, !tbaa !70
  %17 = load i32, ptr %6, align 4, !tbaa !10
  %18 = getelementptr inbounds nuw %struct.CvMat, ptr %0, i32 0, i32 5
  store i32 %17, ptr %18, align 8, !tbaa !70
  %19 = getelementptr inbounds nuw %struct.CvMat, ptr %0, i32 0, i32 6
  %20 = load i32, ptr %19, align 4, !tbaa !70
  %21 = load i32, ptr %8, align 4, !tbaa !10
  %22 = and i32 %21, 4088
  %23 = ashr i32 %22, 3
  %24 = add nsw i32 %23, 1
  %25 = load i32, ptr %8, align 4, !tbaa !10
  %26 = and i32 %25, 7
  %27 = mul nsw i32 %26, 4
  %28 = ashr i32 675553809, %27
  %29 = and i32 %28, 15
  %30 = mul nsw i32 %24, %29
  %31 = mul nsw i32 %20, %30
  %32 = getelementptr inbounds nuw %struct.CvMat, ptr %0, i32 0, i32 1
  store i32 %31, ptr %32, align 4, !tbaa !78
  %33 = load ptr, ptr %9, align 8, !tbaa !75
  %34 = getelementptr inbounds nuw %struct.CvMat, ptr %0, i32 0, i32 4
  store ptr %33, ptr %34, align 8, !tbaa !70
  %35 = getelementptr inbounds nuw %struct.CvMat, ptr %0, i32 0, i32 2
  store ptr null, ptr %35, align 8, !tbaa !79
  %36 = getelementptr inbounds nuw %struct.CvMat, ptr %0, i32 0, i32 3
  store i32 0, ptr %36, align 8, !tbaa !80
  ret void
}

; Function Attrs: mustprogress uwtable
define hidden void @_ZN2cv4epnp19find_betas_approx_1EPK5CvMatS3_Pd(ptr noundef nonnull align 8 dereferenceable(352) %0, ptr noundef %1, ptr noundef %2, ptr noundef %3) #4 align 2 {
  %5 = alloca ptr, align 8
  %6 = alloca ptr, align 8
  %7 = alloca ptr, align 8
  %8 = alloca ptr, align 8
  %9 = alloca [24 x double], align 16
  %10 = alloca [4 x double], align 16
  %11 = alloca %struct.CvMat, align 8
  %12 = alloca %struct.CvMat, align 8
  %13 = alloca i32, align 4
  store ptr %0, ptr %5, align 8, !tbaa !3
  store ptr %1, ptr %6, align 8, !tbaa !68
  store ptr %2, ptr %7, align 8, !tbaa !68
  store ptr %3, ptr %8, align 8, !tbaa !83
  call void @llvm.lifetime.start.p0(i64 192, ptr %9) #3
  call void @llvm.memset.p0.i64(ptr align 16 %9, i8 0, i64 192, i1 false)
  call void @llvm.lifetime.start.p0(i64 32, ptr %10) #3
  call void @llvm.memset.p0.i64(ptr align 16 %10, i8 0, i64 32, i1 false)
  call void @llvm.lifetime.start.p0(i64 40, ptr %11) #3
  %14 = getelementptr inbounds [24 x double], ptr %9, i64 0, i64 0
  call void @_ZL5cvMatiiiPv(ptr dead_on_unwind writable sret(%struct.CvMat) align 8 %11, i32 noundef 6, i32 noundef 4, i32 noundef 6, ptr noundef %14)
  call void @llvm.lifetime.start.p0(i64 40, ptr %12) #3
  %15 = getelementptr inbounds [4 x double], ptr %10, i64 0, i64 0
  call void @_ZL5cvMatiiiPv(ptr dead_on_unwind writable sret(%struct.CvMat) align 8 %12, i32 noundef 4, i32 noundef 1, i32 noundef 6, ptr noundef %15)
  call void @llvm.lifetime.start.p0(i64 4, ptr %13) #3
  store i32 0, ptr %13, align 4, !tbaa !10
  br label %16

16:                                               ; preds = %37, %4
  %17 = load i32, ptr %13, align 4, !tbaa !10
  %18 = icmp slt i32 %17, 6
  br i1 %18, label %20, label %19

19:                                               ; preds = %16
  call void @llvm.lifetime.end.p0(i64 4, ptr %13) #3
  br label %40

20:                                               ; preds = %16
  %21 = load i32, ptr %13, align 4, !tbaa !10
  %22 = load ptr, ptr %6, align 8, !tbaa !68
  %23 = load i32, ptr %13, align 4, !tbaa !10
  %24 = call noundef double @_ZL6cvmGetPK5CvMatii(ptr noundef %22, i32 noundef %23, i32 noundef 0)
  call void @_ZL6cvmSetP5CvMatiid(ptr noundef %11, i32 noundef %21, i32 noundef 0, double noundef %24)
  %25 = load i32, ptr %13, align 4, !tbaa !10
  %26 = load ptr, ptr %6, align 8, !tbaa !68
  %27 = load i32, ptr %13, align 4, !tbaa !10
  %28 = call noundef double @_ZL6cvmGetPK5CvMatii(ptr noundef %26, i32 noundef %27, i32 noundef 1)
  call void @_ZL6cvmSetP5CvMatiid(ptr noundef %11, i32 noundef %25, i32 noundef 1, double noundef %28)
  %29 = load i32, ptr %13, align 4, !tbaa !10
  %30 = load ptr, ptr %6, align 8, !tbaa !68
  %31 = load i32, ptr %13, align 4, !tbaa !10
  %32 = call noundef double @_ZL6cvmGetPK5CvMatii(ptr noundef %30, i32 noundef %31, i32 noundef 3)
  call void @_ZL6cvmSetP5CvMatiid(ptr noundef %11, i32 noundef %29, i32 noundef 2, double noundef %32)
  %33 = load i32, ptr %13, align 4, !tbaa !10
  %34 = load ptr, ptr %6, align 8, !tbaa !68
  %35 = load i32, ptr %13, align 4, !tbaa !10
  %36 = call noundef double @_ZL6cvmGetPK5CvMatii(ptr noundef %34, i32 noundef %35, i32 noundef 6)
  call void @_ZL6cvmSetP5CvMatiid(ptr noundef %11, i32 noundef %33, i32 noundef 3, double noundef %36)
  br label %37

37:                                               ; preds = %20
  %38 = load i32, ptr %13, align 4, !tbaa !10
  %39 = add nsw i32 %38, 1
  store i32 %39, ptr %13, align 4, !tbaa !10
  br label %16, !llvm.loop !97

40:                                               ; preds = %19
  %41 = load ptr, ptr %7, align 8, !tbaa !68
  %42 = call i32 @cvSolve(ptr noundef %11, ptr noundef %41, ptr noundef %12, i32 noundef 1)
  %43 = getelementptr inbounds [4 x double], ptr %10, i64 0, i64 0
  %44 = load double, ptr %43, align 16, !tbaa !40
  %45 = fcmp olt double %44, 0.000000e+00
  br i1 %45, label %46, label %80

46:                                               ; preds = %40
  %47 = getelementptr inbounds [4 x double], ptr %10, i64 0, i64 0
  %48 = load double, ptr %47, align 16, !tbaa !40
  %49 = fneg double %48
  %50 = call double @sqrt(double noundef %49) #3, !tbaa !10
  %51 = load ptr, ptr %8, align 8, !tbaa !83
  %52 = getelementptr inbounds double, ptr %51, i64 0
  store double %50, ptr %52, align 8, !tbaa !40
  %53 = getelementptr inbounds [4 x double], ptr %10, i64 0, i64 1
  %54 = load double, ptr %53, align 8, !tbaa !40
  %55 = fneg double %54
  %56 = load ptr, ptr %8, align 8, !tbaa !83
  %57 = getelementptr inbounds double, ptr %56, i64 0
  %58 = load double, ptr %57, align 8, !tbaa !40
  %59 = fdiv double %55, %58
  %60 = load ptr, ptr %8, align 8, !tbaa !83
  %61 = getelementptr inbounds double, ptr %60, i64 1
  store double %59, ptr %61, align 8, !tbaa !40
  %62 = getelementptr inbounds [4 x double], ptr %10, i64 0, i64 2
  %63 = load double, ptr %62, align 16, !tbaa !40
  %64 = fneg double %63
  %65 = load ptr, ptr %8, align 8, !tbaa !83
  %66 = getelementptr inbounds double, ptr %65, i64 0
  %67 = load double, ptr %66, align 8, !tbaa !40
  %68 = fdiv double %64, %67
  %69 = load ptr, ptr %8, align 8, !tbaa !83
  %70 = getelementptr inbounds double, ptr %69, i64 2
  store double %68, ptr %70, align 8, !tbaa !40
  %71 = getelementptr inbounds [4 x double], ptr %10, i64 0, i64 3
  %72 = load double, ptr %71, align 8, !tbaa !40
  %73 = fneg double %72
  %74 = load ptr, ptr %8, align 8, !tbaa !83
  %75 = getelementptr inbounds double, ptr %74, i64 0
  %76 = load double, ptr %75, align 8, !tbaa !40
  %77 = fdiv double %73, %76
  %78 = load ptr, ptr %8, align 8, !tbaa !83
  %79 = getelementptr inbounds double, ptr %78, i64 3
  store double %77, ptr %79, align 8, !tbaa !40
  br label %110

80:                                               ; preds = %40
  %81 = getelementptr inbounds [4 x double], ptr %10, i64 0, i64 0
  %82 = load double, ptr %81, align 16, !tbaa !40
  %83 = call double @sqrt(double noundef %82) #3, !tbaa !10
  %84 = load ptr, ptr %8, align 8, !tbaa !83
  %85 = getelementptr inbounds double, ptr %84, i64 0
  store double %83, ptr %85, align 8, !tbaa !40
  %86 = getelementptr inbounds [4 x double], ptr %10, i64 0, i64 1
  %87 = load double, ptr %86, align 8, !tbaa !40
  %88 = load ptr, ptr %8, align 8, !tbaa !83
  %89 = getelementptr inbounds double, ptr %88, i64 0
  %90 = load double, ptr %89, align 8, !tbaa !40
  %91 = fdiv double %87, %90
  %92 = load ptr, ptr %8, align 8, !tbaa !83
  %93 = getelementptr inbounds double, ptr %92, i64 1
  store double %91, ptr %93, align 8, !tbaa !40
  %94 = getelementptr inbounds [4 x double], ptr %10, i64 0, i64 2
  %95 = load double, ptr %94, align 16, !tbaa !40
  %96 = load ptr, ptr %8, align 8, !tbaa !83
  %97 = getelementptr inbounds double, ptr %96, i64 0
  %98 = load double, ptr %97, align 8, !tbaa !40
  %99 = fdiv double %95, %98
  %100 = load ptr, ptr %8, align 8, !tbaa !83
  %101 = getelementptr inbounds double, ptr %100, i64 2
  store double %99, ptr %101, align 8, !tbaa !40
  %102 = getelementptr inbounds [4 x double], ptr %10, i64 0, i64 3
  %103 = load double, ptr %102, align 8, !tbaa !40
  %104 = load ptr, ptr %8, align 8, !tbaa !83
  %105 = getelementptr inbounds double, ptr %104, i64 0
  %106 = load double, ptr %105, align 8, !tbaa !40
  %107 = fdiv double %103, %106
  %108 = load ptr, ptr %8, align 8, !tbaa !83
  %109 = getelementptr inbounds double, ptr %108, i64 3
  store double %107, ptr %109, align 8, !tbaa !40
  br label %110

110:                                              ; preds = %80, %46
  call void @llvm.lifetime.end.p0(i64 40, ptr %12) #3
  call void @llvm.lifetime.end.p0(i64 40, ptr %11) #3
  call void @llvm.lifetime.end.p0(i64 32, ptr %10) #3
  call void @llvm.lifetime.end.p0(i64 192, ptr %9) #3
  ret void
}