; Function Attrs: mustprogress uwtable
define hidden void @_ZN2cv4epnp19find_betas_approx_1EPK5CvMatS3_Pd(ptr nonnull readnone align 8 captures(none) %0, ptr noundef readonly captures(none) %1, ptr noundef %2, ptr noundef writeonly captures(none) %3) local_unnamed_addr #3 align 2 {
  %5 = alloca [24 x double], align 16
  %6 = alloca [4 x double], align 16
  %7 = alloca %struct.CvMat, align 8
  %8 = alloca %struct.CvMat, align 8
  call void @llvm.lifetime.start.p0(i64 192, ptr nonnull %5) #24
  call void @llvm.memset.p0.i64(ptr noundef nonnull align 16 dereferenceable(192) %5, i8 0, i64 192, i1 false)
  call void @llvm.lifetime.start.p0(i64 32, ptr nonnull %6) #24
  call void @llvm.memset.p0.i64(ptr noundef nonnull align 16 dereferenceable(32) %6, i8 0, i64 32, i1 false)
  call void @llvm.lifetime.start.p0(i64 40, ptr nonnull %7) #24
  store i32 1111638022, ptr %7, align 8, !tbaa !64, !alias.scope !124
  %9 = getelementptr inbounds nuw i8, ptr %7, i64 36
  store i32 4, ptr %9, align 4, !tbaa !69, !alias.scope !124
  %10 = getelementptr inbounds nuw i8, ptr %7, i64 32
  store i32 6, ptr %10, align 8, !tbaa !69, !alias.scope !124
  %11 = getelementptr inbounds nuw i8, ptr %7, i64 4
  store i32 32, ptr %11, align 4, !tbaa !70, !alias.scope !124
  %12 = getelementptr inbounds nuw i8, ptr %7, i64 24
  store ptr %5, ptr %12, align 8, !tbaa !69, !alias.scope !124
  %13 = getelementptr inbounds nuw i8, ptr %7, i64 8
  store ptr null, ptr %13, align 8, !tbaa !71, !alias.scope !124
  %14 = getelementptr inbounds nuw i8, ptr %7, i64 16
  store i32 0, ptr %14, align 8, !tbaa !72, !alias.scope !124
  call void @llvm.lifetime.start.p0(i64 40, ptr nonnull %8) #24
  store i32 1111638022, ptr %8, align 8, !tbaa !64, !alias.scope !127
  %15 = getelementptr inbounds nuw i8, ptr %8, i64 36
  store i32 1, ptr %15, align 4, !tbaa !69, !alias.scope !127
  %16 = getelementptr inbounds nuw i8, ptr %8, i64 32
  store i32 4, ptr %16, align 8, !tbaa !69, !alias.scope !127
  %17 = getelementptr inbounds nuw i8, ptr %8, i64 4
  store i32 8, ptr %17, align 4, !tbaa !70, !alias.scope !127
  %18 = getelementptr inbounds nuw i8, ptr %8, i64 24
  store ptr %6, ptr %18, align 8, !tbaa !69, !alias.scope !127
  %19 = getelementptr inbounds nuw i8, ptr %8, i64 8
  store ptr null, ptr %19, align 8, !tbaa !71, !alias.scope !127
  %20 = getelementptr inbounds nuw i8, ptr %8, i64 16
  store i32 0, ptr %20, align 8, !tbaa !72, !alias.scope !127
  %21 = load i32, ptr %1, align 8, !tbaa !64
  %22 = and i32 %21, 4095
  %23 = icmp eq i32 %22, 5
  %24 = getelementptr inbounds nuw i8, ptr %1, i64 24
  %25 = getelementptr inbounds nuw i8, ptr %1, i64 4
  %26 = load i32, ptr %25, align 4, !tbaa !70
  %27 = sext i32 %26 to i64
  %28 = load ptr, ptr %24, align 8, !tbaa !69
  br i1 %23, label %_ZL6cvmSetP5CvMatiid.exit37.us.preheader, label %_ZL6cvmSetP5CvMatiid.exit37.preheader

_ZL6cvmSetP5CvMatiid.exit37.preheader:            ; preds = %4
  %invariant.gep = getelementptr i8, ptr %28, i64 8
  %invariant.gep54 = getelementptr i8, ptr %28, i64 24
  %29 = load ptr, ptr %24, align 8, !tbaa !69
  %invariant.gep56 = getelementptr i8, ptr %29, i64 48
  br label %_ZL6cvmSetP5CvMatiid.exit37

_ZL6cvmSetP5CvMatiid.exit37.us.preheader:         ; preds = %4
  %invariant.gep58 = getelementptr i8, ptr %28, i64 4
  %30 = load ptr, ptr %24, align 8, !tbaa !69
  %invariant.gep60 = getelementptr i8, ptr %30, i64 12
  %invariant.gep62 = getelementptr i8, ptr %30, i64 24
  br label %_ZL6cvmSetP5CvMatiid.exit37.us

_ZL6cvmSetP5CvMatiid.exit37.us:                   ; preds = %_ZL6cvmSetP5CvMatiid.exit37.us.preheader, %_ZL6cvmSetP5CvMatiid.exit37.us
  %indvars.iv46 = phi i64 [ 0, %_ZL6cvmSetP5CvMatiid.exit37.us.preheader ], [ %indvars.iv.next47, %_ZL6cvmSetP5CvMatiid.exit37.us ]
  %31 = mul nsw i64 %indvars.iv46, %27
  %32 = getelementptr inbounds nuw i8, ptr %28, i64 %31
  %33 = load float, ptr %32, align 4, !tbaa !18
  %34 = fpext float %33 to double
  %35 = shl nuw nsw i64 %indvars.iv46, 5
  %36 = getelementptr inbounds nuw i8, ptr %5, i64 %35
  store double %34, ptr %36, align 16, !tbaa !32
  %gep59 = getelementptr i8, ptr %invariant.gep58, i64 %31
  %37 = load float, ptr %gep59, align 4, !tbaa !18
  %38 = fpext float %37 to double
  %39 = getelementptr inbounds nuw i8, ptr %36, i64 8
  store double %38, ptr %39, align 8, !tbaa !32
  %gep61 = getelementptr i8, ptr %invariant.gep60, i64 %31
  %40 = load float, ptr %gep61, align 4, !tbaa !18
  %41 = fpext float %40 to double
  %42 = getelementptr inbounds nuw i8, ptr %36, i64 16
  store double %41, ptr %42, align 16, !tbaa !32
  %gep63 = getelementptr i8, ptr %invariant.gep62, i64 %31
  %43 = load float, ptr %gep63, align 4, !tbaa !18
  %44 = fpext float %43 to double
  %45 = getelementptr inbounds nuw i8, ptr %36, i64 24
  store double %44, ptr %45, align 8, !tbaa !32
  %indvars.iv.next47 = add nuw nsw i64 %indvars.iv46, 1
  %exitcond49.not = icmp eq i64 %indvars.iv.next47, 6
  br i1 %exitcond49.not, label %.split43.us, label %_ZL6cvmSetP5CvMatiid.exit37.us, !llvm.loop !130

.split43.us:                                      ; preds = %_ZL6cvmSetP5CvMatiid.exit37, %_ZL6cvmSetP5CvMatiid.exit37.us
  %46 = call i32 @cvSolve(ptr noundef nonnull %7, ptr noundef %2, ptr noundef nonnull %8, i32 noundef 1)
  %47 = load double, ptr %6, align 16, !tbaa !32
  %48 = fcmp olt double %47, 0.000000e+00
  br i1 %48, label %60, label %75

_ZL6cvmSetP5CvMatiid.exit37:                      ; preds = %_ZL6cvmSetP5CvMatiid.exit37.preheader, %_ZL6cvmSetP5CvMatiid.exit37
  %indvars.iv = phi i64 [ 0, %_ZL6cvmSetP5CvMatiid.exit37.preheader ], [ %indvars.iv.next, %_ZL6cvmSetP5CvMatiid.exit37 ]
  %49 = mul nsw i64 %indvars.iv, %27
  %50 = getelementptr inbounds nuw i8, ptr %28, i64 %49
  %51 = load double, ptr %50, align 8, !tbaa !32
  %52 = shl nuw nsw i64 %indvars.iv, 5
  %53 = getelementptr inbounds nuw i8, ptr %5, i64 %52
  store double %51, ptr %53, align 16, !tbaa !32
  %gep = getelementptr i8, ptr %invariant.gep, i64 %49
  %54 = load double, ptr %gep, align 8, !tbaa !32
  %55 = getelementptr inbounds nuw i8, ptr %53, i64 8
  store double %54, ptr %55, align 8, !tbaa !32
  %gep55 = getelementptr i8, ptr %invariant.gep54, i64 %49
  %56 = load double, ptr %gep55, align 8, !tbaa !32
  %57 = getelementptr inbounds nuw i8, ptr %53, i64 16
  store double %56, ptr %57, align 16, !tbaa !32
  %gep57 = getelementptr i8, ptr %invariant.gep56, i64 %49
  %58 = load double, ptr %gep57, align 8, !tbaa !32
  %59 = getelementptr inbounds nuw i8, ptr %53, i64 24
  store double %58, ptr %59, align 8, !tbaa !32
  %indvars.iv.next = add nuw nsw i64 %indvars.iv, 1
  %exitcond.not = icmp eq i64 %indvars.iv.next, 6
  br i1 %exitcond.not, label %.split43.us, label %_ZL6cvmSetP5CvMatiid.exit37, !llvm.loop !130

60:                                               ; preds = %.split43.us
  %61 = fneg double %47
  %62 = call double @sqrt(double noundef %61) #24, !tbaa !38
  %63 = getelementptr inbounds nuw i8, ptr %6, i64 8
  %64 = load double, ptr %63, align 8, !tbaa !32
  %65 = fneg double %64
  %66 = fdiv double %65, %62
  %67 = getelementptr inbounds nuw i8, ptr %6, i64 16
  %68 = load double, ptr %67, align 16, !tbaa !32
  %69 = fneg double %68
  %70 = fdiv double %69, %62
  %71 = getelementptr inbounds nuw i8, ptr %6, i64 24
  %72 = load double, ptr %71, align 8, !tbaa !32
  %73 = fneg double %72
  %74 = fdiv double %73, %62
  br label %86

75:                                               ; preds = %.split43.us
  %76 = call double @sqrt(double noundef %47) #24, !tbaa !38
  %77 = getelementptr inbounds nuw i8, ptr %6, i64 8
  %78 = load double, ptr %77, align 8, !tbaa !32
  %79 = fdiv double %78, %76
  %80 = getelementptr inbounds nuw i8, ptr %6, i64 16
  %81 = load double, ptr %80, align 16, !tbaa !32
  %82 = fdiv double %81, %76
  %83 = getelementptr inbounds nuw i8, ptr %6, i64 24
  %84 = load double, ptr %83, align 8, !tbaa !32
  %85 = fdiv double %84, %76
  br label %86

86:                                               ; preds = %75, %60
  %.sink52 = phi double [ %62, %60 ], [ %76, %75 ]
  %.sink51 = phi double [ %66, %60 ], [ %79, %75 ]
  %.sink50 = phi double [ %70, %60 ], [ %82, %75 ]
  %.sink = phi double [ %74, %60 ], [ %85, %75 ]
  store double %.sink52, ptr %3, align 8, !tbaa !32
  %87 = getelementptr inbounds nuw i8, ptr %3, i64 8
  store double %.sink51, ptr %87, align 8, !tbaa !32
  %88 = getelementptr inbounds nuw i8, ptr %3, i64 16
  store double %.sink50, ptr %88, align 8, !tbaa !32
  %89 = getelementptr inbounds nuw i8, ptr %3, i64 24
  store double %.sink, ptr %89, align 8, !tbaa !32
  call void @llvm.lifetime.end.p0(i64 40, ptr nonnull %8) #24
  call void @llvm.lifetime.end.p0(i64 40, ptr nonnull %7) #24
  call void @llvm.lifetime.end.p0(i64 32, ptr nonnull %6) #24
  call void @llvm.lifetime.end.p0(i64 192, ptr nonnull %5) #24
  ret void
}